target datalayout = "e-m:e-p270:32:32-p271:32:32-p272:64:64-i64:64-i128:128-f80:128-n8:16:32:64-S128"
target triple = "x86_64-pc-linux-gnu"

%struct.lua_TValue = type { %union.Value, [1 x i32], i32 }
%union.Value = type { ptr }
%struct.lua_State = type { i8, i8, i8, i8, i8, i8, i8, ptr, ptr, ptr, ptr, ptr, ptr, ptr, ptr, i32, i32, i16, i16, i32, ptr, ptr, ptr, ptr, ptr }
%struct.global_State = type { %struct.stringtable, ptr, ptr, i8, i8, ptr, ptr, ptr, i64, i64, i32, i32, i32, [40 x ptr], [40 x ptr], ptr, ptr, ptr, [256 x i64], ptr, %struct.UpVal, [11 x ptr], [11 x ptr], [21 x ptr], %struct.lua_TValue, %struct.lua_TValue, i32, ptr, i64, [4 x i64], %struct.lua_Callbacks, %struct.lua_ExecutionCallbacks, [128 x ptr], [128 x ptr], [128 x ptr], %struct.GCStats }
%struct.stringtable = type { ptr, i32, i32 }
%struct.UpVal = type { i8, i8, i8, i8, ptr, %union.anon }
%union.anon = type { %struct.anon }
%struct.anon = type { ptr, ptr, ptr }
%struct.lua_Callbacks = type { ptr, ptr, ptr, ptr, ptr, ptr, ptr, ptr, ptr, ptr }
%struct.lua_ExecutionCallbacks = type { ptr, ptr, ptr, ptr, ptr, ptr, ptr }
%struct.GCStats = type { [32 x i32], i32, i32, i64, i64, i64, double, double, double }
%struct.TString = type { i8, i8, i8, i16, ptr, i32, i32, [1 x i8] }

; Function Attrs: mustprogress uwtable
define internal noundef i32 @_ZL9luauF_subP9lua_StateP10lua_TValueS2_iS2_i(ptr noundef %0, ptr noundef %1, ptr noundef %2, i32 noundef %3, ptr noundef %4, i32 noundef %5) #3 {
  %7 = alloca i32, align 4
  %8 = alloca ptr, align 8
  %9 = alloca ptr, align 8
  %10 = alloca ptr, align 8
  %11 = alloca i32, align 4
  %12 = alloca ptr, align 8
  %13 = alloca i32, align 4
  %14 = alloca ptr, align 8
  %15 = alloca i32, align 4
  %16 = alloca i32, align 4
  %17 = alloca i32, align 4
  %18 = alloca ptr, align 8
  store ptr %0, ptr %8, align 8, !tbaa !4
  store ptr %1, ptr %9, align 8, !tbaa !9
  store ptr %2, ptr %10, align 8, !tbaa !9
  store i32 %3, ptr %11, align 4, !tbaa !11
  store ptr %4, ptr %12, align 8, !tbaa !9
  store i32 %5, ptr %13, align 4, !tbaa !11
  %19 = load i32, ptr %13, align 4, !tbaa !11
  %20 = icmp sge i32 %19, 3
  br i1 %20, label %21, label %103

21:                                               ; preds = %6
  %22 = load i32, ptr %11, align 4, !tbaa !11
  %23 = icmp sle i32 %22, 1
  br i1 %23, label %24, label %103

24:                                               ; preds = %21
  %25 = load ptr, ptr %10, align 8, !tbaa !9
  %26 = getelementptr inbounds nuw %struct.lua_TValue, ptr %25, i32 0, i32 2
  %27 = load i32, ptr %26, align 4, !tbaa !13
  %28 = icmp eq i32 %27, 5
  br i1 %28, label %29, label %103

29:                                               ; preds = %24
  %30 = load ptr, ptr %12, align 8, !tbaa !9
  %31 = getelementptr inbounds nuw %struct.lua_TValue, ptr %30, i32 0, i32 2
  %32 = load i32, ptr %31, align 4, !tbaa !13
  %33 = icmp eq i32 %32, 3
  br i1 %33, label %34, label %103

34:                                               ; preds = %29
  %35 = load ptr, ptr %12, align 8, !tbaa !9
  %36 = getelementptr inbounds %struct.lua_TValue, ptr %35, i64 1
  %37 = getelementptr inbounds nuw %struct.lua_TValue, ptr %36, i32 0, i32 2
  %38 = load i32, ptr %37, align 4, !tbaa !13
  %39 = icmp eq i32 %38, 3
  br i1 %39, label %40, label %103

40:                                               ; preds = %34
  call void @llvm.lifetime.start.p0(i64 8, ptr %14) #17
  %41 = load ptr, ptr %10, align 8, !tbaa !9
  %42 = getelementptr inbounds nuw %struct.lua_TValue, ptr %41, i32 0, i32 0
  %43 = load ptr, ptr %42, align 8, !tbaa !15
  store ptr %43, ptr %14, align 8, !tbaa !37
  call void @llvm.lifetime.start.p0(i64 4, ptr %15) #17
  %44 = load ptr, ptr %12, align 8, !tbaa !9
  %45 = getelementptr inbounds nuw %struct.lua_TValue, ptr %44, i32 0, i32 0
  %46 = load double, ptr %45, align 8, !tbaa !15
  %47 = fptosi double %46 to i32
  store i32 %47, ptr %15, align 4, !tbaa !11
  call void @llvm.lifetime.start.p0(i64 4, ptr %16) #17
  %48 = load ptr, ptr %12, align 8, !tbaa !9
  %49 = getelementptr inbounds %struct.lua_TValue, ptr %48, i64 1
  %50 = getelementptr inbounds nuw %struct.lua_TValue, ptr %49, i32 0, i32 0
  %51 = load double, ptr %50, align 8, !tbaa !15
  %52 = fptosi double %51 to i32
  store i32 %52, ptr %16, align 4, !tbaa !11
  %53 = load ptr, ptr %8, align 8, !tbaa !4
  %54 = getelementptr inbounds nuw %struct.lua_State, ptr %53, i32 0, i32 9
  %55 = load ptr, ptr %54, align 8, !tbaa !27
  %56 = getelementptr inbounds nuw %struct.global_State, ptr %55, i32 0, i32 9
  %57 = load i64, ptr %56, align 8, !tbaa !43
  %58 = load ptr, ptr %8, align 8, !tbaa !4
  %59 = getelementptr inbounds nuw %struct.lua_State, ptr %58, i32 0, i32 9
  %60 = load ptr, ptr %59, align 8, !tbaa !27
  %61 = getelementptr inbounds nuw %struct.global_State, ptr %60, i32 0, i32 8
  %62 = load i64, ptr %61, align 8, !tbaa !55
  %63 = icmp uge i64 %57, %62
  br i1 %63, label %64, label %65

64:                                               ; preds = %40
  store i32 -1, ptr %7, align 4
  store i32 1, ptr %17, align 4
  br label %100

65:                                               ; preds = %40
  %66 = load i32, ptr %15, align 4, !tbaa !11
  %67 = icmp sge i32 %66, 1
  br i1 %67, label %68, label %99

68:                                               ; preds = %65
  %69 = load i32, ptr %16, align 4, !tbaa !11
  %70 = load i32, ptr %15, align 4, !tbaa !11
  %71 = icmp sge i32 %69, %70
  br i1 %71, label %72, label %99

72:                                               ; preds = %68
  %73 = load i32, ptr %16, align 4, !tbaa !11
  %74 = sub nsw i32 %73, 1
  %75 = load ptr, ptr %14, align 8, !tbaa !37
  %76 = getelementptr inbounds nuw %struct.TString, ptr %75, i32 0, i32 6
  %77 = load i32, ptr %76, align 4, !tbaa !38
  %78 = icmp ult i32 %74, %77
  br i1 %78, label %79, label %99

79:                                               ; preds = %72
  call void @llvm.lifetime.start.p0(i64 8, ptr %18) #17
  %80 = load ptr, ptr %9, align 8, !tbaa !9
  store ptr %80, ptr %18, align 8, !tbaa !9
  %81 = load ptr, ptr %8, align 8, !tbaa !4
  %82 = load ptr, ptr %14, align 8, !tbaa !37
  %83 = getelementptr inbounds nuw %struct.TString, ptr %82, i32 0, i32 7
  %84 = getelementptr inbounds [1 x i8], ptr %83, i64 0, i64 0
  %85 = load i32, ptr %15, align 4, !tbaa !11
  %86 = sub nsw i32 %85, 1
  %87 = sext i32 %86 to i64
  %88 = getelementptr inbounds i8, ptr %84, i64 %87
  %89 = load i32, ptr %16, align 4, !tbaa !11
  %90 = load i32, ptr %15, align 4, !tbaa !11
  %91 = sub nsw i32 %89, %90
  %92 = add nsw i32 %91, 1
  %93 = sext i32 %92 to i64
  %94 = call noundef ptr @_Z12luaS_newlstrP9lua_StatePKcm(ptr noundef %81, ptr noundef %88, i64 noundef %93)
  %95 = load ptr, ptr %18, align 8, !tbaa !9
  %96 = getelementptr inbounds nuw %struct.lua_TValue, ptr %95, i32 0, i32 0
  store ptr %94, ptr %96, align 8, !tbaa !15
  %97 = load ptr, ptr %18, align 8, !tbaa !9
  %98 = getelementptr inbounds nuw %struct.lua_TValue, ptr %97, i32 0, i32 2
  store i32 5, ptr %98, align 4, !tbaa !13
  call void @llvm.lifetime.end.p0(i64 8, ptr %18) #17
  store i32 1, ptr %7, align 4
  store i32 1, ptr %17, align 4
  br label %100

99:                                               ; preds = %72, %68, %65
  store i32 0, ptr %17, align 4
  br label %100

100:                                              ; preds = %99, %79, %64
  call void @llvm.lifetime.end.p0(i64 4, ptr %16) #17
  call void @llvm.lifetime.end.p0(i64 4, ptr %15) #17
  call void @llvm.lifetime.end.p0(i64 8, ptr %14) #17
  %101 = load i32, ptr %17, align 4
  switch i32 %101, label %106 [
    i32 0, label %102
    i32 1, label %104
  ]

102:                                              ; preds = %100
  br label %103

103:                                              ; preds = %102, %34, %29, %24, %21, %6
  store i32 -1, ptr %7, align 4
  br label %104

104:                                              ; preds = %103, %100
  %105 = load i32, ptr %7, align 4
  ret i32 %105

106:                                              ; preds = %100
  unreachable
}