; Function Attrs: mustprogress uwtable
define internal noundef range(i32 -1, 2) i32 @_ZL9luauF_subP9lua_StateP10lua_TValueS2_iS2_i(ptr noundef %0, ptr noundef writeonly captures(none) %1, ptr noundef readonly captures(none) %2, i32 noundef %3, ptr noundef readonly captures(none) %4, i32 noundef %5) #8 {
  %7 = icmp sgt i32 %5, 2
  %8 = icmp slt i32 %3, 2
  %or.cond = and i1 %8, %7
  br i1 %or.cond, label %9, label %.thread

9:                                                ; preds = %6
  %10 = getelementptr inbounds nuw i8, ptr %2, i64 12
  %11 = load i32, ptr %10, align 4, !tbaa !4
  %12 = icmp eq i32 %11, 5
  br i1 %12, label %13, label %.thread

13:                                               ; preds = %9
  %14 = getelementptr inbounds nuw i8, ptr %4, i64 12
  %15 = load i32, ptr %14, align 4, !tbaa !4
  %16 = icmp eq i32 %15, 3
  br i1 %16, label %17, label %.thread

17:                                               ; preds = %13
  %18 = getelementptr inbounds nuw i8, ptr %4, i64 28
  %19 = load i32, ptr %18, align 4, !tbaa !4
  %20 = icmp eq i32 %19, 3
  br i1 %20, label %21, label %.thread

21:                                               ; preds = %17
  %22 = getelementptr inbounds nuw i8, ptr %4, i64 16
  %23 = load ptr, ptr %2, align 8, !tbaa !9
  %24 = load double, ptr %4, align 8, !tbaa !9
  %25 = fptosi double %24 to i32
  %26 = load double, ptr %22, align 8, !tbaa !9
  %27 = fptosi double %26 to i32
  %28 = getelementptr inbounds nuw i8, ptr %0, i64 24
  %29 = load ptr, ptr %28, align 8, !tbaa !20
  %30 = getelementptr inbounds nuw i8, ptr %29, i64 72
  %31 = load i64, ptr %30, align 8, !tbaa !36
  %32 = getelementptr inbounds nuw i8, ptr %29, i64 64
  %33 = load i64, ptr %32, align 8, !tbaa !49
  %.not = icmp ult i64 %31, %33
  br i1 %.not, label %34, label %.thread

34:                                               ; preds = %21
  %35 = icmp slt i32 %25, 1
  %.not28 = icmp slt i32 %27, %25
  %or.cond29 = select i1 %35, i1 true, i1 %.not28
  br i1 %or.cond29, label %.thread, label %36

36:                                               ; preds = %34
  %37 = add nsw i32 %27, -1
  %38 = getelementptr inbounds nuw i8, ptr %23, i64 20
  %39 = load i32, ptr %38, align 4, !tbaa !33
  %40 = icmp ult i32 %37, %39
  br i1 %40, label %41, label %.thread

41:                                               ; preds = %36
  %42 = getelementptr inbounds nuw i8, ptr %23, i64 24
  %43 = zext nneg i32 %25 to i64
  %44 = getelementptr i8, ptr %42, i64 %43
  %45 = getelementptr i8, ptr %44, i64 -1
  %reass.sub = sub i32 %27, %25
  %46 = add i32 %reass.sub, 1
  %47 = sext i32 %46 to i64
  %48 = tail call noundef ptr @_Z12luaS_newlstrP9lua_StatePKcm(ptr noundef nonnull %0, ptr noundef %45, i64 noundef %47)
  store ptr %48, ptr %1, align 8, !tbaa !9
  %49 = getelementptr inbounds nuw i8, ptr %1, i64 12
  store i32 5, ptr %49, align 4, !tbaa !4
  br label %.thread

.thread:                                          ; preds = %34, %36, %6, %9, %13, %17, %41, %21
  %.1 = phi i32 [ 1, %41 ], [ -1, %21 ], [ -1, %17 ], [ -1, %13 ], [ -1, %9 ], [ -1, %6 ], [ -1, %36 ], [ -1, %34 ]
  ret i32 %.1
}